(dp1
S'output'
p2
S"<type 'exceptions.SyntaxError'> Set: no tables selected"
p3
sS'layer'
p4
S'/home/abhishek/web2py/applications/ittest/controllers/default.py'
p5
sS'code'
p6
S'# -*- coding: utf-8 -*-\n# this file is released under public domain and you can use without limitations\n\n#########################################################################\n## This is a samples controller\n## - index is the default action of any application\n## - user is required for authentication and authorization\n## - download is for downloading files uploaded in the db (does streaming)\n## - call exposes all registered services (none by default)\n#########################################################################\n\n\n@auth.requires_login()\ndef index():\n    """\n    example action using the internationalization operator T and flash\n    rendered by views/default/index.html or views/generic.html\n\n    if you need a simple wiki simple replace the two lines below with:\n    return auth.wiki()\n    """\n    response.flash = T("Welcome to Online Examination Portal!")\n    k=db(db.auth_membership.user_id==auth.user.id).select(db.auth_membership.group_id)\n    print k[0].group_id\n    if k[0].group_id==1:\n\t    redirect(URL(\'faculty_home\'))\n    else:\n\t    redirect(URL(\'student_home\'))\n    return dict(message=T(\'Hello World\'))\ndef faculty_home():\n\treturn dict(message=T(\'Welcome faculty\'))\ndef student_home():\n\treturn dict(message=T(\'Welcome Student\'))\n\ndef user():\n    """\n    exposes:\n    http://..../[app]/default/user/login\n    http://..../[app]/default/user/logout\n    http://..../[app]/default/user/register\n    http://..../[app]/default/user/profile\n    http://..../[app]/default/user/retrieve_password\n    http://..../[app]/default/user/change_password\n    use @auth.requires_login()\n        @auth.requires_membership(\'group name\')\n        @auth.requires_permission(\'read\',\'table name\',record_id)\n    to decorate functions that need access control\n    """\n    auth.settings.register_onaccept=__add_user_membership\n    return dict(form=auth())\ndef __add_user_membership(form):\n\tgroup=db(db.auth_group.role==form.vars.profession).select().first()\n\tprint group,form.vars\n\tuser_id=form.vars.id\n\tauth.add_membership(group.id,user_id)\n\ndef download():\n    """\n    allows downloading of uploaded files\n    http://..../[app]/default/download/[filename]\n    """\n    return response.download(request, db)\n\n\ndef call():\n    """\n    exposes services. for example:\n    http://..../[app]/default/call/jsonrpc\n    decorate with @services.jsonrpc the functions to expose\n    supports xml, json, xmlrpc, jsonrpc, amfrpc, rss, csv\n    """\n    return service()\n\n\n@auth.requires_signature()\ndef data():\n    """\n    http://..../[app]/default/data/tables\n    http://..../[app]/default/data/create/[table]\n    http://..../[app]/default/data/read/[table]/[id]\n    http://..../[app]/default/data/update/[table]/[id]\n    http://..../[app]/default/data/delete/[table]/[id]\n    http://..../[app]/default/data/select/[table]\n    http://..../[app]/default/data/search/[table]\n    but URLs must be signed, i.e. linked with\n      A(\'table\',_href=URL(\'data/tables\',user_signature=True))\n    or with the signed load operator\n      LOAD(\'default\',\'data.load\',args=\'tables\',ajax=True,user_signature=True)\n    """\n    return dict(form=crud())\ndef reg():\n\tform=SQLFORM(db.auth_user)\n\tif(form.accepts(request,session)):\n\t\tform.process()\n\t\tif(form.vars.profession==\'Faculty\'):\n\t\t\tauth.add_membership(1,form.vars.id)\n\t\telse:\n\t\t\tauth.add_membership(2,form.vars.id)\n\t\tresponse.flash=\'Form Accepted\'\n\telif(form.errors):\n\t\tresponse.flash=\'Form Has Errors\'\n\telse:\n\t\tresponse.flash=\'Fill Form\'\n\treturn dict(form=form)\n@auth.requires_login()\n@auth.requires_membership(\'Faculty\')\ndef make_paper():\n\t#if(db.auth_user.profession==\'Students\'):\n\t\t#redirect(URL(\'student_home\'))\n#\telse:\n\tform=SQLFORM(db.qptable)\n\t#print form\n\tform.vars.facultyid=auth.user.id\n\tif(form.accepts(request,session)):\n\t\t#print \'lo1\'\n\t\tform.process()\n\t\tsession.k=int(form.vars.no_of_question)\n\t\tsession.l=1\n\t\tsession.q=form.vars.id\n\t\tprint \'hi\'\n\t\tredirect(URL(r=request,f=\'set_paper\'))\n\telif(form.errors):\n\t\tresponse.flash=\'Form Has Errors\'\n\telse:\n\t\tresponse.flash=\'Fill Form\'\n\treturn dict(form=form)\ndef correctoptions():\n\t#print \'kt\'\n\t#form=SQLFORM(db.correctoptions)\n\t#print \'loi\'\n\t#print form\n\tsession.option=db(db.qoptions.qname==session.q1).select(db.qoptions.qoptions)\n\t#print session.option.qoptions\n\tr=[]\n\tq=len(session.option)\n\tfor i in range(q):\n\t\tr.append(session.option[i].qoptions)\n\tprint r\n\tform=SQLFORM.factory(\n\t\t\tField(\'qtable\',db.qtable,requires=IS_IN_DB(db,\'qtable.id\',\'qtable.question\')),\n\t\t\tField(\'name\',\'string\',requires=IS_IN_SET(r,multiple=True),widget=SQLFORM.widgets.checkboxes.widget))\n\tform.vars.qtable=session.q1\n\t#print form\n\t#form.vars.name._requires=IS_IN_SET(range(1,(session.opt)+1),multiple=True)\n\tif(form.accepts(request,session)):\n\t\t#print \'it worked\'\n\t\t#form.process()\n\t\tdb.correctoptions.insert(qtable=form.vars.qtable,name=form.vars.name)\n\t\t#print \'it qorked\'\n\t\tredirect(URL(r=request,f=\'set_paper\'))\n\telif(form.errors):\n\t\tresponse.Flash=\'Form Has Errors\'\n\telse:\n\t\tresponse.Flash=\'Fill Correct Options\'\n\treturn dict(form=form)\ndef set_paper():\n\tprint \'yoy\'\n\tk=int(session.k)\n\tl=int(session.l)\n\tif(l<=k):\n\t\tq=session.q\n\t\tform=SQLFORM(db.qtable)\n\t\tform.vars.qnumber=l\n\t\tform.vars.qptableid=q\n\t\tif(form.accepts(request,session)):\n\t\t\tform.process()\n\t\t\tsession.opt=form.vars.number_of_option\n\t\t\tsession.op=1\n\t\t\t(session.l)+=1\n\t\t\tl=session.l\n\t\t\tprint \'king\'\n\t\t\tif(l<=k+1):\n\t\t\t\tprint \'king2\'\n\t\t\t\tsession.r=1\n\t\t\t\t(session.q1)=form.vars.id\n\t\t\t\tsession.j=int(form.vars.number_of_option)\n\t\t\t\tredirect(URL(r=request,f=\'set_option\'))\n\t\t\telse:\n\t\t\t\tredirect(URL(\'faculty_home\'))\n\t\telif(form.errors):\n\t\t\tresponse.flash=\'Form Has Errors\'\n\t\telse:\n\t\t\tresponse.flash=\'Fill Form\'\n\t\treturn dict(form=form)\n\telse:\n\t\tredirect(URL(\'faculty_home\'))\ndef set_option():\n\tj=int(session.j)\n\tr=int(session.r)\n\tq1=session.q1\n\tk=int(session.k)\n\tl=int(session.l)\n\tq=session.q\n\tsession.option=[]\n\tform=SQLFORM(db.qoptions)\n\tform.vars.qoption_num=r\n\tform.vars.qname=q1\n\tif(form.accepts(request,session)):\n\t\tform.process()\n\t\t#print form.vars.qoptions\n\t\t#(session.option).append(form.vars.qoptions)\n\t\t#print session.option\n\t\tsession.r+=1\n\t\tr=session.r\n\t\tif(r<=j):\n\t\t\tredirect(URL(r=request,f=\'set_option\'))\n\t\telse:\n\t\t\tredirect(URL(r=request,f=\'correctoptions\'))\n\telif(form.errors):\n\t\tresponse.flash=\'Form Has Errors\'\n\telse:\n\t\tresponse.flash=\'Fill Form\'\n\treturn dict(form=form)\ndef search():\n\tform=SQLFORM.factory(\n\t\t\tField(\'search\',\'string\',requires=IS_IN_SET([\'Faculty\',\'topic\',\'both\'])))\n\tif(form.accepts(request,session)):\n\t\t\tif(form.vars.search==\'Faculty\'):\n\t\t\t\tredirect(URL(\'search_faculty\'))\n\t\t\telif(form.vars.search==\'topic\'):\n\t\t\t\tredirect(URL(\'search_topic\'))\n\t\t\telif(form.vars.search==\'both\'):\n\t\t\t\tredirect(URL(\'search_both\'))\n\telif(form.errors):\n\t\tresponse.flash=\'Form Has Errors\'\n\telse:\n\t\tresponse.flash=\'Fill Form\'\n\treturn dict(form=form)\ndef search_faculty():\n\tform=SQLFORM.factory(\n\t\t\tField(\'faculty\',db.auth_user,requires=IS_IN_DB(db(db.auth_user.profession.like(\'Faculty\')),\'auth_user.id\',\'auth_user.username\')))\n\tif(form.accepts(request,session)):\n\t\tsession.searchfaculty=form.vars.faculty\n\t\tredirect(URL(\'show_paper_faculty\'))\n\telif(form.errors):\n\t\tresponse.flash=\'Form Has Errors\'\n\telse:\n\t\tresponse.flash=\'Fill Form\'\n\treturn dict(form=form)\ndef search_topic():\n\tform=SQLFORM.factory(\'topic\',db.qptable,requires=IS_IN_DB(db,\'qptable.id\',\'qptable.topic\'))\n\tif(form.accepts(request,session)):\n\t\tsession.searchtopic=form.vars.topic\n\t\tredirect(URL(\'show_paper_topic\'))\n\telif (form.errors):\n\t\tresponse.flash=\'Form Has Errors\'\n\telse:\n\t\tresponse.flash=\'Fill Form\'\n\treturn dict(form=form)\ndef show_paper_topic():\n\tq=db().select()\ndef show_paper_faculty():\n\tq=db(db.qptable.facultyid==session.searchfaculty).select(db.qptable.qpname,db.qptable.id,db.qptable.no_of_question)\n\tprint q\n\treturn dict(q=q)\nsession.cnt=0\ndef display():\n\tsession.cnt=1\n\tprint session.cnt\n\tq=request.args(0)\n\tsession.i=(db(db.qtable.qptableid==q).select(db.qtable.ALL))\n\tsession.no_of_question=len(session.i)\n\t#print session.i,len(session.i)\n\tredirect(URL(r=request,f=\'display_paper/%s\' %session.cnt))\ndef display_paper():\n\t#session.cnt+=1\n\t#q=request.args(0)\n\tsession.cnt=request.args(0)\n\tif(int(session.cnt)>int(session.no_of_question)):\n\t\tredirect(URL(\'student_home\'))\n\tk=session.i[int(session.cnt)-1]\n\tans=db(db.qoptions.qname==k.id).select(db.qoptions.qoptions)\n\tr=[]\n\tl=len(ans)\n\tfor i in range(l):\n\t\tr.append(ans[i].qoptions)\n\tprint r\n\tform=SQLFORM.factory(\n\t\t\tField(\'question\',\'string\',default=k.question,readable=True,writable=False),\n\t\t\tField(\'option\',\'string\',requires=IS_IN_SET(r,multiple=True),widget=SQLFORM.widgets.checkboxes.widget)\n\t\t\t)\n\tsubmit=form.element(\'input\',_type=\'submit\')\n\tsubmit[\'_style\']=\'display:none;\'\n\tif(int(session.cnt)<int(session.no_of_question)):\n\t\tform.add_button(\'next\',URL(\'display_paper/%d\' %(int(session.cnt)+1)))\n\tif(int(session.cnt)>=2):\n\t\tform.add_button(\'prev\',URL(\'display_paper/%d\' %(int(session.cnt)-1)))\n\tform.add_button(\'end exam\',URL(\'display_paper\'))\n\tform.add_button(\'submit\',URL(\'display_paper/%d\' %(int(session.cnt)+1)))\n\t#session.i=(db(db.qtable.qptableid==q).select(db.qtable.ALL))\n\tprint \'ou\'\n\tprint session.i\n\treturn dict(form=form)\n\nresponse._vars=response._caller(show_paper_topic)\n'
p7
sS'snapshot'
p8
(dp9
S'exception'
p10
(dp11
S'__getslice__'
p12
S"<method-wrapper '__getslice__' of exceptions.SyntaxError object>"
p13
sS'text'
p14
S'None'
p15
sS'__str__'
p16
S"<method-wrapper '__str__' of exceptions.SyntaxError object>"
p17
sS'__reduce__'
p18
S'<built-in method __reduce__ of exceptions.SyntaxError object>'
p19
sS'__dict__'
p20
S'{}'
p21
sS'__sizeof__'
p22
S'<built-in method __sizeof__ of exceptions.SyntaxError object>'
p23
sS'__init__'
p24
S"<method-wrapper '__init__' of exceptions.SyntaxError object>"
p25
sS'__setattr__'
p26
S"<method-wrapper '__setattr__' of exceptions.SyntaxError object>"
p27
sS'__reduce_ex__'
p28
S'<built-in method __reduce_ex__ of exceptions.SyntaxError object>'
p29
sS'__new__'
p30
S'<built-in method __new__ of type object>'
p31
sS'__format__'
p32
S'<built-in method __format__ of exceptions.SyntaxError object>'
p33
sS'__class__'
p34
S"<type 'exceptions.SyntaxError'>"
p35
sS'filename'
p36
S'None'
p37
sS'lineno'
p38
S'None'
p39
sS'msg'
p40
S"'Set: no tables selected'"
p41
sS'__doc__'
p42
S"'Invalid syntax.'"
p43
sS'__getitem__'
p44
S"<method-wrapper '__getitem__' of exceptions.SyntaxError object>"
p45
sS'__setstate__'
p46
S'<built-in method __setstate__ of exceptions.SyntaxError object>'
p47
sS'__getattribute__'
p48
S"<method-wrapper '__getattribute__' of exceptions.SyntaxError object>"
p49
sS'print_file_and_line'
p50
S'None'
p51
sS'args'
p52
S"('Set: no tables selected',)"
p53
sS'__subclasshook__'
p54
S'<built-in method __subclasshook__ of type object>'
p55
sS'offset'
p56
S'None'
p57
sS'__unicode__'
p58
S'<built-in method __unicode__ of exceptions.SyntaxError object>'
p59
sS'__delattr__'
p60
S"<method-wrapper '__delattr__' of exceptions.SyntaxError object>"
p61
sS'__repr__'
p62
S"<method-wrapper '__repr__' of exceptions.SyntaxError object>"
p63
sS'__hash__'
p64
S"<method-wrapper '__hash__' of exceptions.SyntaxError object>"
p65
ssS'evalue'
p66
S'Set: no tables selected'
p67
sS'request'
p68
cgluon.html
XML_unpickle
p69
(S's!}\x00\x00<div><table><tr><td style="font-weight:bold;vertical-align:top">ajax</td><td valign="top">:</td><td><div>False</div></td></tr><tr><td style="font-weight:bold;vertical-align:top">application</td><td valign="top">:</td><td><div>ittest</div></td></tr><tr><td style="font-weight:bold;vertical-align:top">args</td><td valign="top">:</td><td><div><table></table></div></td></tr><tr><td style="font-weight:bold;vertical-align:top">body</td><td valign="top">:</td><td><div>&lt;cStringIO.StringO object at 0x8e248a0&gt;</div></td></tr><tr><td style="font-weight:bold;vertical-align:top">cid</td><td valign="top">:</td><td><div>None</div></td></tr><tr><td style="font-weight:bold;vertical-align:top">client</td><td valign="top">:</td><td><div>127.0.0.1</div></td></tr><tr><td style="font-weight:bold;vertical-align:top">controller</td><td valign="top">:</td><td><div>default</div></td></tr><tr><td style="font-weight:bold;vertical-align:top">cookies</td><td valign="top">:</td><td><div><table><tr><td style="font-weight:bold;vertical-align:top">session_id_admin</td><td valign="top">:</td><td><div>127.0.0.1-cdb2e97a-abb2-4365-ac0f-3b83db881305<table><tr><td style="font-weight:bold;vertical-align:top">comment</td><td valign="top">:</td><td><div></div></td></tr><tr><td style="font-weight:bold;vertical-align:top">domain</td><td valign="top">:</td><td><div></div></td></tr><tr><td style="font-weight:bold;vertical-align:top">expires</td><td valign="top">:</td><td><div></div></td></tr><tr><td style="font-weight:bold;vertical-align:top">httponly</td><td valign="top">:</td><td><div></div></td></tr><tr><td style="font-weight:bold;vertical-align:top">max-age</td><td valign="top">:</td><td><div></div></td></tr><tr><td style="font-weight:bold;vertical-align:top">path</td><td valign="top">:</td><td><div></div></td></tr><tr><td style="font-weight:bold;vertical-align:top">secure</td><td valign="top">:</td><td><div></div></td></tr><tr><td style="font-weight:bold;vertical-align:top">version</td><td valign="top">:</td><td><div></div></td></tr></table></div></td></tr><tr><td style="font-weight:bold;vertical-align:top">session_id_it</td><td valign="top">:</td><td><div>127.0.0.1-6cc40b59-09a1-4442-a43b-5a025fb86aee<table><tr><td style="font-weight:bold;vertical-align:top">comment</td><td valign="top">:</td><td><div></div></td></tr><tr><td style="font-weight:bold;vertical-align:top">domain</td><td valign="top">:</td><td><div></div></td></tr><tr><td style="font-weight:bold;vertical-align:top">expires</td><td valign="top">:</td><td><div></div></td></tr><tr><td style="font-weight:bold;vertical-align:top">httponly</td><td valign="top">:</td><td><div></div></td></tr><tr><td style="font-weight:bold;vertical-align:top">max-age</td><td valign="top">:</td><td><div></div></td></tr><tr><td style="font-weight:bold;vertical-align:top">path</td><td valign="top">:</td><td><div></div></td></tr><tr><td style="font-weight:bold;vertical-align:top">secure</td><td valign="top">:</td><td><div></div></td></tr><tr><td style="font-weight:bold;vertical-align:top">version</td><td valign="top">:</td><td><div></div></td></tr></table></div></td></tr><tr><td style="font-weight:bold;vertical-align:top">session_id_ittest</td><td valign="top">:</td><td><div>127.0.0.1-aaa78335-4629-4e30-b6f2-e9cd7dc34730<table><tr><td style="font-weight:bold;vertical-align:top">comment</td><td valign="top">:</td><td><div></div></td></tr><tr><td style="font-weight:bold;vertical-align:top">domain</td><td valign="top">:</td><td><div></div></td></tr><tr><td style="font-weight:bold;vertical-align:top">expires</td><td valign="top">:</td><td><div></div></td></tr><tr><td style="font-weight:bold;vertical-align:top">httponly</td><td valign="top">:</td><td><div></div></td></tr><tr><td style="font-weight:bold;vertical-align:top">max-age</td><td valign="top">:</td><td><div></div></td></tr><tr><td style="font-weight:bold;vertical-align:top">path</td><td valign="top">:</td><td><div></div></td></tr><tr><td style="font-weight:bold;vertical-align:top">secure</td><td valign="top">:</td><td><div></div></td></tr><tr><td style="font-weight:bold;vertical-align:top">version</td><td valign="top">:</td><td><div></div></td></tr></table></div></td></tr><tr><td style="font-weight:bold;vertical-align:top">session_id_itws_project</td><td valign="top">:</td><td><div>127.0.0.1-66f9e680-f928-4ce8-934c-34faec6625a3<table><tr><td style="font-weight:bold;vertical-align:top">comment</td><td valign="top">:</td><td><div></div></td></tr><tr><td style="font-weight:bold;vertical-align:top">domain</td><td valign="top">:</td><td><div></div></td></tr><tr><td style="font-weight:bold;vertical-align:top">expires</td><td valign="top">:</td><td><div></div></td></tr><tr><td style="font-weight:bold;vertical-align:top">httponly</td><td valign="top">:</td><td><div></div></td></tr><tr><td style="font-weight:bold;vertical-align:top">max-age</td><td valign="top">:</td><td><div></div></td></tr><tr><td style="font-weight:bold;vertical-align:top">path</td><td valign="top">:</td><td><div></div></td></tr><tr><td style="font-weight:bold;vertical-align:top">secure</td><td valign="top">:</td><td><div></div></td></tr><tr><td style="font-weight:bold;vertical-align:top">version</td><td valign="top">:</td><td><div></div></td></tr></table></div></td></tr><tr><td style="font-weight:bold;vertical-align:top">session_id_music</td><td valign="top">:</td><td><div>127.0.0.1-c45434fc-60e3-4971-9790-d7302b13402f<table><tr><td style="font-weight:bold;vertical-align:top">comment</td><td valign="top">:</td><td><div></div></td></tr><tr><td style="font-weight:bold;vertical-align:top">domain</td><td valign="top">:</td><td><div></div></td></tr><tr><td style="font-weight:bold;vertical-align:top">expires</td><td valign="top">:</td><td><div></div></td></tr><tr><td style="font-weight:bold;vertical-align:top">httponly</td><td valign="top">:</td><td><div></div></td></tr><tr><td style="font-weight:bold;vertical-align:top">max-age</td><td valign="top">:</td><td><div></div></td></tr><tr><td style="font-weight:bold;vertical-align:top">path</td><td valign="top">:</td><td><div></div></td></tr><tr><td style="font-weight:bold;vertical-align:top">secure</td><td valign="top">:</td><td><div></div></td></tr><tr><td style="font-weight:bold;vertical-align:top">version</td><td valign="top">:</td><td><div></div></td></tr></table></div></td></tr><tr><td style="font-weight:bold;vertical-align:top">session_id_quiz</td><td valign="top">:</td><td><div>127.0.0.1-001af907-d3f7-4cca-ad1f-324df1352ea6<table><tr><td style="font-weight:bold;vertical-align:top">comment</td><td valign="top">:</td><td><div></div></td></tr><tr><td style="font-weight:bold;vertical-align:top">domain</td><td valign="top">:</td><td><div></div></td></tr><tr><td style="font-weight:bold;vertical-align:top">expires</td><td valign="top">:</td><td><div></div></td></tr><tr><td style="font-weight:bold;vertical-align:top">httponly</td><td valign="top">:</td><td><div></div></td></tr><tr><td style="font-weight:bold;vertical-align:top">max-age</td><td valign="top">:</td><td><div></div></td></tr><tr><td style="font-weight:bold;vertical-align:top">path</td><td valign="top">:</td><td><div></div></td></tr><tr><td style="font-weight:bold;vertical-align:top">secure</td><td valign="top">:</td><td><div></div></td></tr><tr><td style="font-weight:bold;vertical-align:top">version</td><td valign="top">:</td><td><div></div></td></tr></table></div></td></tr><tr><td style="font-weight:bold;vertical-align:top">session_id_test</td><td valign="top">:</td><td><div>127.0.0.1-9e4d8fe0-7efd-47c4-aa43-21b508770f8f<table><tr><td style="font-weight:bold;vertical-align:top">comment</td><td valign="top">:</td><td><div></div></td></tr><tr><td style="font-weight:bold;vertical-align:top">domain</td><td valign="top">:</td><td><div></div></td></tr><tr><td style="font-weight:bold;vertical-align:top">expires</td><td valign="top">:</td><td><div></div></td></tr><tr><td style="font-weight:bold;vertical-align:top">httponly</td><td valign="top">:</td><td><div></div></td></tr><tr><td style="font-weight:bold;vertical-align:top">max-age</td><td valign="top">:</td><td><div></div></td></tr><tr><td style="font-weight:bold;vertical-align:top">path</td><td valign="top">:</td><td><div></div></td></tr><tr><td style="font-weight:bold;vertical-align:top">secure</td><td valign="top">:</td><td><div></div></td></tr><tr><td style="font-weight:bold;vertical-align:top">version</td><td valign="top">:</td><td><div></div></td></tr></table></div></td></tr><tr><td style="font-weight:bold;vertical-align:top">session_id_test1</td><td valign="top">:</td><td><div>127.0.0.1-3e0b66f8-dd6f-46b7-aa3b-fbe7990448a3<table><tr><td style="font-weight:bold;vertical-align:top">comment</td><td valign="top">:</td><td><div></div></td></tr><tr><td style="font-weight:bold;vertical-align:top">domain</td><td valign="top">:</td><td><div></div></td></tr><tr><td style="font-weight:bold;vertical-align:top">expires</td><td valign="top">:</td><td><div></div></td></tr><tr><td style="font-weight:bold;vertical-align:top">httponly</td><td valign="top">:</td><td><div></div></td></tr><tr><td style="font-weight:bold;vertical-align:top">max-age</td><td valign="top">:</td><td><div></div></td></tr><tr><td style="font-weight:bold;vertical-align:top">path</td><td valign="top">:</td><td><div></div></td></tr><tr><td style="font-weight:bold;vertical-align:top">secure</td><td valign="top">:</td><td><div></div></td></tr><tr><td style="font-weight:bold;vertical-align:top">version</td><td valign="top">:</td><td><div></div></td></tr></table></div></td></tr><tr><td style="font-weight:bold;vertical-align:top">session_id_testg</td><td valign="top">:</td><td><div>127.0.0.1-ea273346-3693-4a24-b670-0b4da27abed9<table><tr><td style="font-weight:bold;vertical-align:top">comment</td><td valign="top">:</td><td><div></div></td></tr><tr><td style="font-weight:bold;vertical-align:top">domain</td><td valign="top">:</td><td><div></div></td></tr><tr><td style="font-weight:bold;vertical-align:top">expires</td><td valign="top">:</td><td><div></div></td></tr><tr><td style="font-weight:bold;vertical-align:top">httponly</td><td valign="top">:</td><td><div></div></td></tr><tr><td style="font-weight:bold;vertical-align:top">max-age</td><td valign="top">:</td><td><div></div></td></tr><tr><td style="font-weight:bold;vertical-align:top">path</td><td valign="top">:</td><td><div></div></td></tr><tr><td style="font-weight:bold;vertical-align:top">secure</td><td valign="top">:</td><td><div></div></td></tr><tr><td style="font-weight:bold;vertical-align:top">version</td><td valign="top">:</td><td><div></div></td></tr></table></div></td></tr><tr><td style="font-weight:bold;vertical-align:top">session_id_testimage</td><td valign="top">:</td><td><div>127.0.0.1-3e1daab8-91d8-4dcc-bb19-a9877540978f<table><tr><td style="font-weight:bold;vertical-align:top">comment</td><td valign="top">:</td><td><div></div></td></tr><tr><td style="font-weight:bold;vertical-align:top">domain</td><td valign="top">:</td><td><div></div></td></tr><tr><td style="font-weight:bold;vertical-align:top">expires</td><td valign="top">:</td><td><div></div></td></tr><tr><td style="font-weight:bold;vertical-align:top">httponly</td><td valign="top">:</td><td><div></div></td></tr><tr><td style="font-weight:bold;vertical-align:top">max-age</td><td valign="top">:</td><td><div></div></td></tr><tr><td style="font-weight:bold;vertical-align:top">path</td><td valign="top">:</td><td><div></div></td></tr><tr><td style="font-weight:bold;vertical-align:top">secure</td><td valign="top">:</td><td><div></div></td></tr><tr><td style="font-weight:bold;vertical-align:top">version</td><td valign="top">:</td><td><div></div></td></tr></table></div></td></tr><tr><td style="font-weight:bold;vertical-align:top">session_id_welcome</td><td valign="top">:</td><td><div>127.0.0.1-611473d6-ae3f-4a45-9a99-2d75d05fdd37<table><tr><td style="font-weight:bold;vertical-align:top">comment</td><td valign="top">:</td><td><div></div></td></tr><tr><td style="font-weight:bold;vertical-align:top">domain</td><td valign="top">:</td><td><div></div></td></tr><tr><td style="font-weight:bold;vertical-align:top">expires</td><td valign="top">:</td><td><div></div></td></tr><tr><td style="font-weight:bold;vertical-align:top">httponly</td><td valign="top">:</td><td><div></div></td></tr><tr><td style="font-weight:bold;vertical-align:top">max-age</td><td valign="top">:</td><td><div></div></td></tr><tr><td style="font-weight:bold;vertical-align:top">path</td><td valign="top">:</td><td><div></div></td></tr><tr><td style="font-weight:bold;vertical-align:top">secure</td><td valign="top">:</td><td><div></div></td></tr><tr><td style="font-weight:bold;vertical-align:top">version</td><td valign="top">:</td><td><div></div></td></tr></table></div></td></tr><tr><td style="font-weight:bold;vertical-align:top">session_id_yo</td><td valign="top">:</td><td><div>127.0.0.1-4d9e9841-34e3-43d8-aeb4-c79f5d44ede3<table><tr><td style="font-weight:bold;vertical-align:top">comment</td><td valign="top">:</td><td><div></div></td></tr><tr><td style="font-weight:bold;vertical-align:top">domain</td><td valign="top">:</td><td><div></div></td></tr><tr><td style="font-weight:bold;vertical-align:top">expires</td><td valign="top">:</td><td><div></div></td></tr><tr><td style="font-weight:bold;vertical-align:top">httponly</td><td valign="top">:</td><td><div></div></td></tr><tr><td style="font-weight:bold;vertical-align:top">max-age</td><td valign="top">:</td><td><div></div></td></tr><tr><td style="font-weight:bold;vertical-align:top">path</td><td valign="top">:</td><td><div></div></td></tr><tr><td style="font-weight:bold;vertical-align:top">secure</td><td valign="top">:</td><td><div></div></td></tr><tr><td style="font-weight:bold;vertical-align:top">version</td><td valign="top">:</td><td><div></div></td></tr></table></div></td></tr></table></div></td></tr><tr><td style="font-weight:bold;vertical-align:top">env</td><td valign="top">:</td><td><div><table><tr><td style="font-weight:bold;vertical-align:top">app_folders</td><td valign="top">:</td><td><div>set([&#x27;/home/abhishek/web2py/applications/ittest/&#x27;, &#x27;/home/abhishek/web2py/applications/admin/&#x27;])</div></td></tr><tr><td style="font-weight:bold;vertical-align:top">applications_parent</td><td valign="top">:</td><td><div>/home/abhishek/web2py</div></td></tr><tr><td style="font-weight:bold;vertical-align:top">cmd_args</td><td valign="top">:</td><td><div><table></table></div></td></tr><tr><td style="font-weight:bold;vertical-align:top">cmd_options</td><td valign="top">:</td><td><div>&lt;Values at 0x8bc220c: {&#x27;verbose&#x27;: False, &#x27;ip&#x27;: &#x27;127.0.0.1&#x27;, &#x27;with_scheduler&#x27;: False, &#x27;ips&#x27;: [], &#x27;shutdown_timeout&#x27;: 5, &#x27;taskbar&#x27;: False, &#x27;port&#x27;: 8000, &#x27;maxthreads&#x27;: None, &#x27;softcron&#x27;: False, &#x27;server_name&#x27;: &#x27;abhishek&#x27;, &#x27;bpython&#x27;: False, &#x27;nogui&#x27;: False, &#x27;pid_filename&#x27;: &#x27;httpserver.pid&#x27;, &#x27;extcron&#x27;: False, &#x27;runcron&#x27;: False, &#x27;run_system_tests&#x27;: False, &#x27;test&#x27;: None, &#x27;folder&#x27;: &#x27;/home/abhishek/web2py&#x27;, &#x27;config&#x27;: &#x27;&#x27;, &#x27;import_models&#x27;: False, &#x27;winservice&#x27;: &#x27;&#x27;, &#x27;shell&#x27;: None, &#x27;run&#x27;: &#x27;&#x27;, &#x27;log_filename&#x27;: &#x27;httpserver.log&#x27;, &#x27;debuglevel&#x27;: 30, &#x27;args&#x27;: [&#x27;&#x27;], &#x27;socket_timeout&#x27;: 5, &#x27;ssl_ca_certificate&#x27;: None, &#x27;scheduler&#x27;: None, &#x27;profiler_filename&#x27;: None, &#x27;ssl_private_key&#x27;: &#x27;&#x27;, &#x27;scheduler_groups&#x27;: None, &#x27;password&#x27;: &#x27;1234&#x27;, &#x27;request_queue_size&#x27;: 5, &#x27;ssl_certificate&#x27;: &#x27;&#x27;, &#x27;cronjob&#x27;: False, &#x27;numthreads&#x27;: None, &#x27;quiet&#x27;: False, &#x27;interfaces&#x27;: None, &#x27;minthreads&#x27;: None, &#x27;timeout&#x27;: 10, &#x27;plain&#x27;: False, &#x27;nobanner&#x27;: False}&gt;</div></td></tr><tr><td style="font-weight:bold;vertical-align:top">db_sessions</td><td valign="top">:</td><td><div>set([])</div></td></tr><tr><td style="font-weight:bold;vertical-align:top">debugging</td><td valign="top">:</td><td><div>False</div></td></tr><tr><td style="font-weight:bold;vertical-align:top">gluon_parent</td><td valign="top">:</td><td><div>/home/abhishek/web2py</div></td></tr><tr><td style="font-weight:bold;vertical-align:top">http_accept</td><td valign="top">:</td><td><div>text/html,application/xhtml+xml,application/xml;q=0.9,*/*;q=0.8</div></td></tr><tr><td style="font-weight:bold;vertical-align:top">http_accept_encoding</td><td valign="top">:</td><td><div>gzip, deflate</div></td></tr><tr><td style="font-weight:bold;vertical-align:top">http_accept_language</td><td valign="top">:</td><td><div>en-US,en;q=0.5</div></td></tr><tr><td style="font-weight:bold;vertical-align:top">http_connection</td><td valign="top">:</td><td><div>keep-alive</div></td></tr><tr><td style="font-weight:bold;vertical-align:top">http_cookie</td><td valign="top">:</td><td><div>session_id_welcome=127.0.0.1-611473d6-ae3f-4a45-9a99-2d75d05fdd37; session_id_admin=127.0.0.1-cdb2e97a-abb2-4365-ac0f-3b83db881305; session_id_yo=127.0.0.1-4d9e9841-34e3-43d8-aeb4-c79f5d44ede3; session_id_test1=127.0.0.1-3e0b66f8-dd6f-46b7-aa3b-fbe7990448a3; session_id_music=127.0.0.1-c45434fc-60e3-4971-9790-d7302b13402f; session_id_test=127.0.0.1-9e4d8fe0-7efd-47c4-aa43-21b508770f8f; session_id_testimage=127.0.0.1-3e1daab8-91d8-4dcc-bb19-a9877540978f; session_id_itws_project=127.0.0.1-66f9e680-f928-4ce8-934c-34faec6625a3; session_id_testg=127.0.0.1-ea273346-3693-4a24-b670-0b4da27abed9; session_id_quiz=127.0.0.1-001af907-d3f7-4cca-ad1f-324df1352ea6; session_id_it=127.0.0.1-6cc40b59-09a1-4442-a43b-5a025fb86aee; session_id_ittest=127.0.0.1-aaa78335-4629-4e30-b6f2-e9cd7dc34730</div></td></tr><tr><td style="font-weight:bold;vertical-align:top">http_host</td><td valign="top">:</td><td><div>127.0.0.1:8000</div></td></tr><tr><td style="font-weight:bold;vertical-align:top">http_referer</td><td valign="top">:</td><td><div>http://127.0.0.1:8000/admin/default/design/ittest</div></td></tr><tr><td style="font-weight:bold;vertical-align:top">http_user_agent</td><td valign="top">:</td><td><div>Mozilla/5.0 (X11; Ubuntu; Linux i686; rv:18.0) Gecko/20100101 Firefox/18.0</div></td></tr><tr><td style="font-weight:bold;vertical-align:top">is_jython</td><td valign="top">:</td><td><div>False</div></td></tr><tr><td style="font-weight:bold;vertical-align:top">is_pypy</td><td valign="top">:</td><td><div>False</div></td></tr><tr><td style="font-weight:bold;vertical-align:top">local_hosts</td><td valign="top">:</td><td><div><table><tr><td><div>abhishek</div></td></tr><tr><td><div>::1</div></td></tr><tr><td><div>127.0.1.1</div></td></tr><tr><td><div>::ffff:127.0.0.1</div></td></tr><tr><td><div>127.0.0.1</div></td></tr></table></div></td></tr><tr><td style="font-weight:bold;vertical-align:top">path_info</td><td valign="top">:</td><td><div>/ittest/default/show_paper_topic</div></td></tr><tr><td style="font-weight:bold;vertical-align:top">query_string</td><td valign="top">:</td><td><div></div></td></tr><tr><td style="font-weight:bold;vertical-align:top">remote_addr</td><td valign="top">:</td><td><div>127.0.0.1</div></td></tr><tr><td style="font-weight:bold;vertical-align:top">remote_port</td><td valign="top">:</td><td><div>56793</div></td></tr><tr><td style="font-weight:bold;vertical-align:top">request_method</td><td valign="top">:</td><td><div>GET</div></td></tr><tr><td style="font-weight:bold;vertical-align:top">request_uri</td><td valign="top">:</td><td><div>/ittest/default/show_paper_topic</div></td></tr><tr><td style="font-weight:bold;vertical-align:top">script_name</td><td valign="top">:</td><td><div></div></td></tr><tr><td style="font-weight:bold;vertical-align:top">server_name</td><td valign="top">:</td><td><div>abhishek</div></td></tr><tr><td style="font-weight:bold;vertical-align:top">server_port</td><td valign="top">:</td><td><div>8000</div></td></tr><tr><td style="font-weight:bold;vertical-align:top">server_protocol</td><td valign="top">:</td><td><div>HTTP/1.1</div></td></tr><tr><td style="font-weight:bold;vertical-align:top">server_software</td><td valign="top">:</td><td><div>Rocket 1.2.6</div></td></tr><tr><td style="font-weight:bold;vertical-align:top">web2py_path</td><td valign="top">:</td><td><div>/home/abhishek/web2py</div></td></tr><tr><td style="font-weight:bold;vertical-align:top">web2py_version</td><td valign="top">:</td><td><div>2.4.5-stable+timestamp.2013.03.18.22.46.22</div></td></tr><tr><td style="font-weight:bold;vertical-align:top">wsgi_errors</td><td valign="top">:</td><td><div>&lt;open file &#x27;&lt;stderr&gt;&#x27;, mode &#x27;w&#x27; at 0xb73250d0&gt;</div></td></tr><tr><td style="font-weight:bold;vertical-align:top">wsgi_file_wrapper</td><td valign="top">:</td><td><div>&lt;class wsgiref.util.FileWrapper at 0x8b4a2fc&gt;</div></td></tr><tr><td style="font-weight:bold;vertical-align:top">wsgi_input</td><td valign="top">:</td><td><div>&lt;socket._fileobject object at 0xafcafeec&gt;</div></td></tr><tr><td style="font-weight:bold;vertical-align:top">wsgi_multiprocess</td><td valign="top">:</td><td><div>False</div></td></tr><tr><td style="font-weight:bold;vertical-align:top">wsgi_multithread</td><td valign="top">:</td><td><div>True</div></td></tr><tr><td style="font-weight:bold;vertical-align:top">wsgi_run_once</td><td valign="top">:</td><td><div>False</div></td></tr><tr><td style="font-weight:bold;vertical-align:top">wsgi_url_scheme</td><td valign="top">:</td><td><div>http</div></td></tr><tr><td style="font-weight:bold;vertical-align:top">wsgi_version</td><td valign="top">:</td><td><div><table><tr><td><div>1</div></td></tr><tr><td><div>0</div></td></tr></table></div></td></tr></table></div></td></tr><tr><td style="font-weight:bold;vertical-align:top">extension</td><td valign="top">:</td><td><div>html</div></td></tr><tr><td style="font-weight:bold;vertical-align:top">folder</td><td valign="top">:</td><td><div>/home/abhishek/web2py/applications/ittest/</div></td></tr><tr><td style="font-weight:bold;vertical-align:top">function</td><td valign="top">:</td><td><div>show_paper_topic</div></td></tr><tr><td style="font-weight:bold;vertical-align:top">get_vars</td><td valign="top">:</td><td><div><table></table></div></td></tr><tr><td style="font-weight:bold;vertical-align:top">global_settings</td><td valign="top">:</td><td><div><table><tr><td style="font-weight:bold;vertical-align:top">app_folders</td><td valign="top">:</td><td><div>set([&#x27;/home/abhishek/web2py/applications/ittest/&#x27;, &#x27;/home/abhishek/web2py/applications/admin/&#x27;])</div></td></tr><tr><td style="font-weight:bold;vertical-align:top">applications_parent</td><td valign="top">:</td><td><div>/home/abhishek/web2py</div></td></tr><tr><td style="font-weight:bold;vertical-align:top">cmd_args</td><td valign="top">:</td><td><div><table></table></div></td></tr><tr><td style="font-weight:bold;vertical-align:top">cmd_options</td><td valign="top">:</td><td><div>&lt;Values at 0x8bc220c: {&#x27;verbose&#x27;: False, &#x27;ip&#x27;: &#x27;127.0.0.1&#x27;, &#x27;with_scheduler&#x27;: False, &#x27;ips&#x27;: [], &#x27;shutdown_timeout&#x27;: 5, &#x27;taskbar&#x27;: False, &#x27;port&#x27;: 8000, &#x27;maxthreads&#x27;: None, &#x27;softcron&#x27;: False, &#x27;server_name&#x27;: &#x27;abhishek&#x27;, &#x27;bpython&#x27;: False, &#x27;nogui&#x27;: False, &#x27;pid_filename&#x27;: &#x27;httpserver.pid&#x27;, &#x27;extcron&#x27;: False, &#x27;runcron&#x27;: False, &#x27;run_system_tests&#x27;: False, &#x27;test&#x27;: None, &#x27;folder&#x27;: &#x27;/home/abhishek/web2py&#x27;, &#x27;config&#x27;: &#x27;&#x27;, &#x27;import_models&#x27;: False, &#x27;winservice&#x27;: &#x27;&#x27;, &#x27;shell&#x27;: None, &#x27;run&#x27;: &#x27;&#x27;, &#x27;log_filename&#x27;: &#x27;httpserver.log&#x27;, &#x27;debuglevel&#x27;: 30, &#x27;args&#x27;: [&#x27;&#x27;], &#x27;socket_timeout&#x27;: 5, &#x27;ssl_ca_certificate&#x27;: None, &#x27;scheduler&#x27;: None, &#x27;profiler_filename&#x27;: None, &#x27;ssl_private_key&#x27;: &#x27;&#x27;, &#x27;scheduler_groups&#x27;: None, &#x27;password&#x27;: &#x27;1234&#x27;, &#x27;request_queue_size&#x27;: 5, &#x27;ssl_certificate&#x27;: &#x27;&#x27;, &#x27;cronjob&#x27;: False, &#x27;numthreads&#x27;: None, &#x27;quiet&#x27;: False, &#x27;interfaces&#x27;: None, &#x27;minthreads&#x27;: None, &#x27;timeout&#x27;: 10, &#x27;plain&#x27;: False, &#x27;nobanner&#x27;: False}&gt;</div></td></tr><tr><td style="font-weight:bold;vertical-align:top">db_sessions</td><td valign="top">:</td><td><div>set([])</div></td></tr><tr><td style="font-weight:bold;vertical-align:top">debugging</td><td valign="top">:</td><td><div>False</div></td></tr><tr><td style="font-weight:bold;vertical-align:top">gluon_parent</td><td valign="top">:</td><td><div>/home/abhishek/web2py</div></td></tr><tr><td style="font-weight:bold;vertical-align:top">is_jython</td><td valign="top">:</td><td><div>False</div></td></tr><tr><td style="font-weight:bold;vertical-align:top">is_pypy</td><td valign="top">:</td><td><div>False</div></td></tr><tr><td style="font-weight:bold;vertical-align:top">local_hosts</td><td valign="top">:</td><td><div><table><tr><td><div>abhishek</div></td></tr><tr><td><div>::1</div></td></tr><tr><td><div>127.0.1.1</div></td></tr><tr><td><div>::ffff:127.0.0.1</div></td></tr><tr><td><div>127.0.0.1</div></td></tr></table></div></td></tr><tr><td style="font-weight:bold;vertical-align:top">web2py_version</td><td valign="top">:</td><td><div>2.4.5-stable+timestamp.2013.03.18.22.46.22</div></td></tr></table></div></td></tr><tr><td style="font-weight:bold;vertical-align:top">is_https</td><td valign="top">:</td><td><div>False</div></td></tr><tr><td style="font-weight:bold;vertical-align:top">is_local</td><td valign="top">:</td><td><div>True</div></td></tr><tr><td style="font-weight:bold;vertical-align:top">is_restful</td><td valign="top">:</td><td><div>False</div></td></tr><tr><td style="font-weight:bold;vertical-align:top">now</td><td valign="top">:</td><td><div>datetime.datetime(2013, 3, 28, 16, 24, 0, 617650)</div></td></tr><tr><td style="font-weight:bold;vertical-align:top">post_vars</td><td valign="top">:</td><td><div><table></table></div></td></tr><tr><td style="font-weight:bold;vertical-align:top">raw_args</td><td valign="top">:</td><td><div></div></td></tr><tr><td style="font-weight:bold;vertical-align:top">raw_extension</td><td valign="top">:</td><td><div>None</div></td></tr><tr><td style="font-weight:bold;vertical-align:top">url</td><td valign="top">:</td><td><div>/ittest/default/show_paper_topic</div></td></tr><tr><td style="font-weight:bold;vertical-align:top">utcnow</td><td valign="top">:</td><td><div>datetime.datetime(2013, 3, 28, 10, 54, 0, 617709)</div></td></tr><tr><td style="font-weight:bold;vertical-align:top">uuid</td><td valign="top">:</td><td><div>ittest/127.0.0.1.2013-03-28.16-24-00.921877f9-87fc-461d-932a-dae7af354448</div></td></tr><tr><td style="font-weight:bold;vertical-align:top">vars</td><td valign="top">:</td><td><div><table></table></div></td></tr><tr><td style="font-weight:bold;vertical-align:top">wsgi</td><td valign="top">:</td><td><div><table><tr><td style="font-weight:bold;vertical-align:top">environ</td><td valign="top">:</td><td><div><table><tr><td style="font-weight:bold;vertical-align:top">HTTP_ACCEPT</td><td valign="top">:</td><td><div>text/html,application/xhtml+xml,application/xml;q=0.9,*/*;q=0.8</div></td></tr><tr><td style="font-weight:bold;vertical-align:top">HTTP_ACCEPT_ENCODING</td><td valign="top">:</td><td><div>gzip, deflate</div></td></tr><tr><td style="font-weight:bold;vertical-align:top">HTTP_ACCEPT_LANGUAGE</td><td valign="top">:</td><td><div>en-US,en;q=0.5</div></td></tr><tr><td style="font-weight:bold;vertical-align:top">HTTP_CONNECTION</td><td valign="top">:</td><td><div>keep-alive</div></td></tr><tr><td style="font-weight:bold;vertical-align:top">HTTP_COOKIE</td><td valign="top">:</td><td><div>session_id_welcome=127.0.0.1-611473d6-ae3f-4a45-9a99-2d75d05fdd37; session_id_admin=127.0.0.1-cdb2e97a-abb2-4365-ac0f-3b83db881305; session_id_yo=127.0.0.1-4d9e9841-34e3-43d8-aeb4-c79f5d44ede3; session_id_test1=127.0.0.1-3e0b66f8-dd6f-46b7-aa3b-fbe7990448a3; session_id_music=127.0.0.1-c45434fc-60e3-4971-9790-d7302b13402f; session_id_test=127.0.0.1-9e4d8fe0-7efd-47c4-aa43-21b508770f8f; session_id_testimage=127.0.0.1-3e1daab8-91d8-4dcc-bb19-a9877540978f; session_id_itws_project=127.0.0.1-66f9e680-f928-4ce8-934c-34faec6625a3; session_id_testg=127.0.0.1-ea273346-3693-4a24-b670-0b4da27abed9; session_id_quiz=127.0.0.1-001af907-d3f7-4cca-ad1f-324df1352ea6; session_id_it=127.0.0.1-6cc40b59-09a1-4442-a43b-5a025fb86aee; session_id_ittest=127.0.0.1-aaa78335-4629-4e30-b6f2-e9cd7dc34730</div></td></tr><tr><td style="font-weight:bold;vertical-align:top">HTTP_HOST</td><td valign="top">:</td><td><div>127.0.0.1:8000</div></td></tr><tr><td style="font-weight:bold;vertical-align:top">HTTP_REFERER</td><td valign="top">:</td><td><div>http://127.0.0.1:8000/admin/default/design/ittest</div></td></tr><tr><td style="font-weight:bold;vertical-align:top">HTTP_USER_AGENT</td><td valign="top">:</td><td><div>Mozilla/5.0 (X11; Ubuntu; Linux i686; rv:18.0) Gecko/20100101 Firefox/18.0</div></td></tr><tr><td style="font-weight:bold;vertical-align:top">PATH_INFO</td><td valign="top">:</td><td><div>/ittest/default/show_paper_topic</div></td></tr><tr><td style="font-weight:bold;vertical-align:top">QUERY_STRING</td><td valign="top">:</td><td><div></div></td></tr><tr><td style="font-weight:bold;vertical-align:top">REMOTE_ADDR</td><td valign="top">:</td><td><div>127.0.0.1</div></td></tr><tr><td style="font-weight:bold;vertical-align:top">REMOTE_PORT</td><td valign="top">:</td><td><div>56793</div></td></tr><tr><td style="font-weight:bold;vertical-align:top">REQUEST_METHOD</td><td valign="top">:</td><td><div>GET</div></td></tr><tr><td style="font-weight:bold;vertical-align:top">REQUEST_URI</td><td valign="top">:</td><td><div>/ittest/default/show_paper_topic</div></td></tr><tr><td style="font-weight:bold;vertical-align:top">SCRIPT_NAME</td><td valign="top">:</td><td><div></div></td></tr><tr><td style="font-weight:bold;vertical-align:top">SERVER_NAME</td><td valign="top">:</td><td><div>abhishek</div></td></tr><tr><td style="font-weight:bold;vertical-align:top">SERVER_PORT</td><td valign="top">:</td><td><div>8000</div></td></tr><tr><td style="font-weight:bold;vertical-align:top">SERVER_PROTOCOL</td><td valign="top">:</td><td><div>HTTP/1.1</div></td></tr><tr><td style="font-weight:bold;vertical-align:top">SERVER_SOFTWARE</td><td valign="top">:</td><td><div>Rocket 1.2.6</div></td></tr><tr><td style="font-weight:bold;vertical-align:top">wsgi.errors</td><td valign="top">:</td><td><div>&lt;open file &#x27;&lt;stderr&gt;&#x27;, mode &#x27;w&#x27; at 0xb73250d0&gt;</div></td></tr><tr><td style="font-weight:bold;vertical-align:top">wsgi.file_wrapper</td><td valign="top">:</td><td><div>&lt;class wsgiref.util.FileWrapper at 0x8b4a2fc&gt;</div></td></tr><tr><td style="font-weight:bold;vertical-align:top">wsgi.input</td><td valign="top">:</td><td><div>&lt;cStringIO.StringO object at 0x8e248a0&gt;</div></td></tr><tr><td style="font-weight:bold;vertical-align:top">wsgi.multiprocess</td><td valign="top">:</td><td><div>False</div></td></tr><tr><td style="font-weight:bold;vertical-align:top">wsgi.multithread</td><td valign="top">:</td><td><div>True</div></td></tr><tr><td style="font-weight:bold;vertical-align:top">wsgi.run_once</td><td valign="top">:</td><td><div>False</div></td></tr><tr><td style="font-weight:bold;vertical-align:top">wsgi.url_scheme</td><td valign="top">:</td><td><div>http</div></td></tr><tr><td style="font-weight:bold;vertical-align:top">wsgi.version</td><td valign="top">:</td><td><div>1</div></td></tr></table></div></td></tr></table></div></td></tr></table></div>'
tRp70
sS'frames'
p71
(lp72
(dp73
S'file'
p74
S'/home/abhishek/web2py/gluon/restricted.py'
p75
sS'dump'
p76
(dp77
S'environment'
p78
S"{'A': <class 'gluon.html.A'>, 'Auth': <class 'gluon.tools.Auth'>, 'B': <class 'gluon.html.B'>, 'BEAUTIFY': <class 'gluon.html.BEAUTIFY'>, 'BODY': <class 'gluon.html.BODY'>, 'BR': <class 'gluon.html.BR'>, 'BUTTON': <class 'gluon.html.BUTTON'>, 'CAT': <class 'gluon.html.CAT'>, 'CENTER': <class 'gluon.html.CENTER'>, 'CLEANUP': <class 'gluon.validators.CLEANUP'>, ...}"
p79
sS'ccode'
p80
S'<code object <module> at 0x8e7c5c0, file "/home/...ications/ittest/controllers/default.py", line 13>'
p81
ssS'lnum'
p82
I212
sS'lines'
p83
(dp84
I207
S'    try:'
p85
sI208
S'        if isinstance(code, types.CodeType):'
p86
sI209
S'            ccode = code'
p87
sI210
S'        else:'
p88
sI211
S'            ccode = compile2(code, layer)'
p89
sI212
S'        exec ccode in environment'
p90
sI213
S'    except HTTP:'
p91
sI214
S'        raise'
p92
sI215
S'    except RestrictedError:'
p93
sI216
S'        # do not encapsulate (obfuscate) the original RestrictedError'
p94
ssS'call'
p95
S"(code='# -*- coding: utf-8 -*-\\n# this file is released ...esponse._vars=response._caller(show_paper_topic)\\n', environment={'A': <class 'gluon.html.A'>, 'Auth': <class 'gluon.tools.Auth'>, 'B': <class 'gluon.html.B'>, 'BEAUTIFY': <class 'gluon.html.BEAUTIFY'>, 'BODY': <class 'gluon.html.BODY'>, 'BR': <class 'gluon.html.BR'>, 'BUTTON': <class 'gluon.html.BUTTON'>, 'CAT': <class 'gluon.html.CAT'>, 'CENTER': <class 'gluon.html.CENTER'>, 'CLEANUP': <class 'gluon.validators.CLEANUP'>, ...}, layer='/home/abhishek/web2py/applications/ittest/controllers/default.py')"
p96
sS'func'
p97
S'restricted'
p98
sa(dp99
g74
S'/home/abhishek/web2py/applications/ittest/controllers/default.py'
p100
sg76
(dp101
sg82
I295
sg83
(dp102
I288
S"\tform.add_button('end exam',URL('display_paper'))"
p103
sI289
S"\tform.add_button('submit',URL('display_paper/%d' %(int(session.cnt)+1)))"
p104
sI290
S'\t#session.i=(db(db.qtable.qptableid==q).select(db.qtable.ALL))'
p105
sI291
S"\tprint 'ou'"
p106
sI292
S'\tprint session.i'
p107
sI293
S'\treturn dict(form=form)'
p108
sI284
S'\tif(int(session.cnt)<int(session.no_of_question)):'
p109
sI285
S"\t\tform.add_button('next',URL('display_paper/%d' %(int(session.cnt)+1)))"
p110
sI286
S'\tif(int(session.cnt)>=2):'
p111
sI287
S"\t\tform.add_button('prev',URL('display_paper/%d' %(int(session.cnt)-1)))"
p112
ssg95
S'()'
p113
sg97
S'<module>'
p114
sa(dp115
g74
S'/home/abhishek/web2py/gluon/globals.py'
p116
sg76
(dp117
S'self'
p118
S'undefined'
p119
sS'f'
S'<function show_paper_topic>'
p120
ssg82
I194
sg83
(dp121
I192
S"        self.delimiters = ('{{', '}}')"
p122
sI193
S'        self._vars = None'
p123
sI194
S'        self._caller = lambda f: f()'
p124
sI195
S'        self._view_environment = None'
p125
sI196
S'        self._custom_commit = None'
p126
sI197
S'        self._custom_rollback = None'
p127
sI198
S''
sI189
S'        self.menu = []             # used by the default view layout'
p128
sI190
S'        self.files = []            # used by web2py_ajax.html'
p129
sI191
S'        self.generic_patterns = []  # patterns to allow generic views'
p130
ssg95
S'(f=<function show_paper_topic>)'
p131
sg97
S'<lambda>'
p132
sa(dp133
g74
S'/home/abhishek/web2py/applications/ittest/controllers/default.py'
p134
sg76
(dp135
S'q'
g119
sS'global db'
p136
S'<DAL uri="sqlite://storage.sqlite">'
p137
sS').select'
p138
g119
ssg82
I251
sg83
(dp139
I246
S"\t\tresponse.flash='Form Has Errors'"
p140
sI247
S'\telse:'
p141
sI248
S"\t\tresponse.flash='Fill Form'"
p142
sI249
S'\treturn dict(form=form)'
p143
sI250
S'def show_paper_topic():'
p144
sI251
S'\tq=db().select()'
p145
sI252
S'def show_paper_faculty():'
p146
sI253
S'\tq=db(db.qptable.facultyid==session.searchfaculty).select(db.qptable.qpname,db.qptable.id,db.qptable.no_of_question)'
p147
sI254
S'\tprint q'
p148
sI255
S'\treturn dict(q=q)'
p149
ssg95
S'()'
p150
sg97
S'show_paper_topic'
p151
sa(dp152
g74
S'/home/abhishek/web2py/gluon/dal.py'
p153
sg76
(dp154
S'self.query'
p155
S'None'
p156
sS'adapter.select'
p157
S'<bound method SQLiteAdapter.select of <gluon.dal.SQLiteAdapter object>>'
p158
sS'fields'
p159
S'[]'
p160
sS'adapter'
p161
S'<gluon.dal.SQLiteAdapter object>'
p162
sS'attributes'
p163
g21
sS'self'
p164
S'<Set None>'
p165
ssg82
I9810
sg83
(dp166
I9805
S"                                    attributes.get('join',None),"
p167
sI9806
S"                                    attributes.get('left',None),"
p168
sI9807
S"                                    attributes.get('orderby',None),"
p169
sI9808
S"                                    attributes.get('groupby',None))"
p170
sI9809
S'        fields = adapter.expand_all(fields, tablenames)'
p171
sI9810
S'        return adapter.select(self.query,fields,attributes)'
p172
sI9811
S''
sI9812
S'    def nested_select(self,*fields,**attributes):'
p173
sI9813
S'        return Expression(self.db,self._select(*fields,**attributes))'
p174
sI9814
S''
ssg95
S'(self=<Set None>, *fields=[], **attributes={})'
p175
sg97
S'select'
p176
sa(dp177
g74
S'/home/abhishek/web2py/gluon/dal.py'
p178
sg76
(dp179
S'fields'
p180
S'[]'
p181
sS'self'
p182
S'<gluon.dal.SQLiteAdapter object>'
p183
sS').select'
p184
S'<bound method SQLiteAdapter.select of <gluon.dal.SQLiteAdapter object>>'
p185
sS'attributes'
p186
g21
sS'global SQLiteAdapter'
p187
S"<class 'gluon.dal.SQLiteAdapter'>"
p188
sS'query'
p189
S'None'
p190
sS'builtinsuper'
p191
S"<type 'super'>"
p192
ssg82
I2218
sg83
(dp193
I2213
S'        Note that the entire database, rather than one record, is locked'
p194
sI2214
S'        (it will be locked eventually anyway by the following UPDATE).'
p195
sI2215
S'        """'
p196
sI2216
S"        if attributes.get('for_update', False) and not 'cache' in attributes:"
p197
sI2217
S"            self.execute('BEGIN IMMEDIATE TRANSACTION;')"
p198
sI2218
S'        return super(SQLiteAdapter, self).select(query, fields, attributes)'
p199
sI2219
S''
sI2220
S'class SpatiaLiteAdapter(SQLiteAdapter):'
p200
sI2221
S"    drivers = ('sqlite3','sqlite2')"
p201
sI2222
S''
ssg95
S'(self=<gluon.dal.SQLiteAdapter object>, query=None, fields=[], attributes={})'
p202
sg97
g176
sa(dp203
g74
S'/home/abhishek/web2py/gluon/dal.py'
p204
sg76
(dp205
S'self._select'
p206
S'<bound method SQLiteAdapter._select of <gluon.dal.SQLiteAdapter object>>'
p207
sS'fields'
p208
S'[]'
p209
sS'self'
p210
S'<gluon.dal.SQLiteAdapter object>'
p211
sS'sql'
p212
g119
sS'query'
p213
S'None'
p214
sS'attributes'
p215
g21
ssg82
I1663
sg83
(dp216
I1664
S"        cache = attributes.get('cache', None)"
p217
sI1665
S"        if cache and attributes.get('cacheable',False):"
p218
sI1666
S"            del attributes['cache']"
p219
sI1667
S'            (cache_model, time_expire) = cache'
p220
sI1658
S''
sI1659
S'    def select(self, query, fields, attributes):'
p221
sI1660
S'        """'
p222
sI1661
S'        Always returns a Rows object, possibly empty.'
p223
sI1662
S'        """'
p224
sI1663
S'        sql = self._select(query, fields, attributes)'
p225
ssg95
S'(self=<gluon.dal.SQLiteAdapter object>, query=None, fields=[], attributes={})'
p226
sg97
g176
sa(dp227
g74
S'/home/abhishek/web2py/gluon/dal.py'
p228
sg76
(dp229
S'builtinSyntaxError'
p230
S"<type 'exceptions.SyntaxError'>"
p231
ssg82
I1512
sg83
(dp232
I1507
S'            for tablename in tables(field):'
p233
sI1508
S'                if not tablename in tablenames:'
p234
sI1509
S'                    tablenames.append(tablename)'
p235
sI1510
S''
sI1511
S'        if len(tablenames) < 1:'
p236
sI1512
S"            raise SyntaxError('Set: no tables selected')"
p237
sI1513
S'        self._colnames = map(self.expand, fields)'
p238
sI1514
S'        def geoexpand(field):'
p239
sI1515
S"            if isinstance(field.type,str) and field.type.startswith('geometry'):"
p240
sI1516
S'                field = field.st_astext()'
p241
ssg95
S'(self=<gluon.dal.SQLiteAdapter object>, query=None, fields=[], attributes={})'
p242
sg97
S'_select'
p243
sasS'pyver'
p244
S'Python 2.7.3: /usr/bin/python (prefix: /usr)'
p245
sS'session'
p246
g69
(S'sl\t\x00\x00<div><table><tr><td style="font-weight:bold;vertical-align:top">cnt</td><td valign="top">:</td><td><div>0</div></td></tr><tr><td style="font-weight:bold;vertical-align:top">flash</td><td valign="top">:</td><td><div></div></td></tr><tr><td style="font-weight:bold;vertical-align:top">i</td><td valign="top">:</td><td><div><table><thead><tr><th>qtable.id</th><th>qtable.qptableid</th><th>qtable.qnumber</th><th>qtable.question</th><th>qtable.marks_for_each_question</th><th>qtable.negativemarks</th><th>qtable.number_of_option</th></tr></thead><tbody><tr class="even"><td>11</td><td>8</td><td>1</td><td>sadas</td><td>2</td><td>3</td><td>2</td></tr><tr class="odd"><td>12</td><td>8</td><td>2</td><td>asdasda</td><td>2</td><td>2</td><td>2</td></tr></tbody></table></div></td></tr><tr><td style="font-weight:bold;vertical-align:top">j</td><td valign="top">:</td><td><div>2</div></td></tr><tr><td style="font-weight:bold;vertical-align:top">k</td><td valign="top">:</td><td><div>2</div></td></tr><tr><td style="font-weight:bold;vertical-align:top">l</td><td valign="top">:</td><td><div>3</div></td></tr><tr><td style="font-weight:bold;vertical-align:top">last_orderby</td><td valign="top">:</td><td><div>None</div></td></tr><tr><td style="font-weight:bold;vertical-align:top">last_query</td><td valign="top">:</td><td><div>db.correctoptions.id&gt;0</div></td></tr><tr><td style="font-weight:bold;vertical-align:top">no_of_question</td><td valign="top">:</td><td><div>2</div></td></tr><tr><td style="font-weight:bold;vertical-align:top">op</td><td valign="top">:</td><td><div>1</div></td></tr><tr><td style="font-weight:bold;vertical-align:top">opt</td><td valign="top">:</td><td><div>2</div></td></tr><tr><td style="font-weight:bold;vertical-align:top">option</td><td valign="top">:</td><td><div><table><thead><tr><th>qoptions.qoptions</th></tr></thead><tbody><tr class="even"><td>21</td></tr><tr class="odd"><td>qweqweq</td></tr></tbody></table></div></td></tr><tr><td style="font-weight:bold;vertical-align:top">q</td><td valign="top">:</td><td><div>8</div></td></tr><tr><td style="font-weight:bold;vertical-align:top">q1</td><td valign="top">:</td><td><div>12</div></td></tr><tr><td style="font-weight:bold;vertical-align:top">r</td><td valign="top">:</td><td><div>3</div></td></tr><tr><td style="font-weight:bold;vertical-align:top">searchfaculty</td><td valign="top">:</td><td><div>1</div></td></tr></table></div>'
tRp247
sS'etype'
p248
S"<type 'exceptions.SyntaxError'>"
p249
sS'date'
p250
S'Thu Mar 28 16:24:00 2013'
p251
sS'response'
p252
g69
(S's\xa5,\x00\x00<div><table><tr><td style="font-weight:bold;vertical-align:top">body</td><td valign="top">:</td><td><div>&lt;cStringIO.StringO object at 0xaf8066a0&gt;</div></td></tr><tr><td style="font-weight:bold;vertical-align:top">cookies</td><td valign="top">:</td><td><div><table><tr><td style="font-weight:bold;vertical-align:top">session_id_ittest</td><td valign="top">:</td><td><div>127.0.0.1-aaa78335-4629-4e30-b6f2-e9cd7dc34730<table><tr><td style="font-weight:bold;vertical-align:top">comment</td><td valign="top">:</td><td><div></div></td></tr><tr><td style="font-weight:bold;vertical-align:top">domain</td><td valign="top">:</td><td><div></div></td></tr><tr><td style="font-weight:bold;vertical-align:top">expires</td><td valign="top">:</td><td><div></div></td></tr><tr><td style="font-weight:bold;vertical-align:top">httponly</td><td valign="top">:</td><td><div></div></td></tr><tr><td style="font-weight:bold;vertical-align:top">max-age</td><td valign="top">:</td><td><div></div></td></tr><tr><td style="font-weight:bold;vertical-align:top">path</td><td valign="top">:</td><td><div>/</div></td></tr><tr><td style="font-weight:bold;vertical-align:top">secure</td><td valign="top">:</td><td><div></div></td></tr><tr><td style="font-weight:bold;vertical-align:top">version</td><td valign="top">:</td><td><div></div></td></tr></table></div></td></tr></table></div></td></tr><tr><td style="font-weight:bold;vertical-align:top">delimiters</td><td valign="top">:</td><td><div><table><tr><td><div>{{</div></td></tr><tr><td><div>}}</div></td></tr></table></div></td></tr><tr><td style="font-weight:bold;vertical-align:top">files</td><td valign="top">:</td><td><div><table></table></div></td></tr><tr><td style="font-weight:bold;vertical-align:top">flash</td><td valign="top">:</td><td><div></div></td></tr><tr><td style="font-weight:bold;vertical-align:top">generic_patterns</td><td valign="top">:</td><td><div><table><tr><td><div>*</div></td></tr></table></div></td></tr><tr><td style="font-weight:bold;vertical-align:top">google_analytics_id</td><td valign="top">:</td><td><div>None</div></td></tr><tr><td style="font-weight:bold;vertical-align:top">headers</td><td valign="top">:</td><td><div><table><tr><td style="font-weight:bold;vertical-align:top">X-Powered-By</td><td valign="top">:</td><td><div>web2py</div></td></tr></table></div></td></tr><tr><td style="font-weight:bold;vertical-align:top">logo</td><td valign="top">:</td><td><div><a class="brand" href="http://www.web2py.com/"><b>web<span>2</span>py</b>&trade;&nbsp;</a></div></td></tr><tr><td style="font-weight:bold;vertical-align:top">menu</td><td valign="top">:</td><td><div><table><tr><td><div><table><tr><td><div>Home</div></td></tr><tr><td><div>False</div></td></tr><tr><td><div>/ittest/default/index</div></td></tr><tr><td><div><table></table></div></td></tr></table></div></td></tr><tr><td><div><table><tr><td><div><span class="highlighted">web2py</span></div></td></tr><tr><td><div>False</div></td></tr><tr><td><div>http://web2py.com</div></td></tr><tr><td><div><table><tr><td><div><table><tr><td><div>My Sites</div></td></tr><tr><td><div>False</div></td></tr><tr><td><div>/admin/default/site</div></td></tr></table></div></td></tr><tr><td><div><table><tr><td><div>This App</div></td></tr><tr><td><div>False</div></td></tr><tr><td><div>/admin/default/design/ittest</div></td></tr><tr><td><div>[(&lt;lazyT &#x27;Controller&#x27;&gt;, False, &#x27;/admin/default/edit/ittest/controllers/default.py&#x27;), (&lt;lazyT &#x27;View&#x27;&gt;, False, &#x27;/admin/default/edit/ittest/views/default/show_paper_topic.html&#x27;), (&lt;lazyT &#x27;Layout&#x27;&gt;, False, &#x27;/admin/default/edit/ittest/views/layout.html&#x27;), (&lt;lazyT &#x27;Stylesheet&#x27;&gt;, False, &#x27;/admin/default/edit/ittest/static/css/web2py.css&#x27;), (&lt;lazyT &#x27;DB Model&#x27;&gt;, False, &#x27;/admin/default/edit/ittest/models/db.py&#x27;), (&lt;lazyT &#x27;Menu Model&#x27;&gt;, False, &#x27;/admin/default/edit/ittest/models/menu.py&#x27;), (&lt;lazyT &#x27;Database&#x27;&gt;, False, &#x27;/ittest/appadmin/index&#x27;), (&lt;lazyT &#x27;Errors&#x27;&gt;, False, &#x27;/admin/default/errors/ittest&#x27;), (&lt;lazyT &#x27;About&#x27;&gt;, False, &#x27;/admin/default/about/ittest&#x27;)]</div></td></tr></table></div></td></tr><tr><td><div><table><tr><td><div>web2py.com</div></td></tr><tr><td><div>False</div></td></tr><tr><td><div>http://www.web2py.com</div></td></tr><tr><td><div>[(&lt;lazyT &#x27;Download&#x27;&gt;, False, &#x27;http://www.web2py.com/examples/default/download&#x27;), (&lt;lazyT &#x27;Support&#x27;&gt;, False, &#x27;http://www.web2py.com/examples/default/support&#x27;), (&lt;lazyT &#x27;Demo&#x27;&gt;, False, &#x27;http://web2py.com/demo_admin&#x27;), (&lt;lazyT &#x27;Quick Examples&#x27;&gt;, False, &#x27;http://web2py.com/examples/default/examples&#x27;), (&lt;lazyT &#x27;FAQ&#x27;&gt;, False, &#x27;http://web2py.com/AlterEgo&#x27;), (&lt;lazyT &#x27;Videos&#x27;&gt;, False, &#x27;http://www.web2py.com/examples/default/videos/&#x27;), (&lt;lazyT &#x27;Free Applications&#x27;&gt;, False, &#x27;http://web2py.com/appliances&#x27;), (&lt;lazyT &#x27;Plugins&#x27;&gt;, False, &#x27;http://web2py.com/plugins&#x27;), (&lt;lazyT &#x27;Layouts&#x27;&gt;, False, &#x27;http://web2py.com/layouts&#x27;), (&lt;lazyT &#x27;Recipes&#x27;&gt;, False, &#x27;http://web2pyslices.com/&#x27;), (&lt;lazyT &#x27;Semantic&#x27;&gt;, False, &#x27;http://web2py.com/semantic&#x27;)]</div></td></tr></table></div></td></tr><tr><td><div><table><tr><td><div>Documentation</div></td></tr><tr><td><div>False</div></td></tr><tr><td><div>http://www.web2py.com/book</div></td></tr><tr><td><div>[(&lt;lazyT &#x27;Preface&#x27;&gt;, False, &#x27;http://www.web2py.com/book/default/chapter/00&#x27;), (&lt;lazyT &#x27;Introduction&#x27;&gt;, False, &#x27;http://www.web2py.com/book/default/chapter/01&#x27;), (&lt;lazyT &#x27;Python&#x27;&gt;, False, &#x27;http://www.web2py.com/book/default/chapter/02&#x27;), (&lt;lazyT &#x27;Overview&#x27;&gt;, False, &#x27;http://www.web2py.com/book/default/chapter/03&#x27;), (&lt;lazyT &#x27;The Core&#x27;&gt;, False, &#x27;http://www.web2py.com/book/default/chapter/04&#x27;), (&lt;lazyT &#x27;The Views&#x27;&gt;, False, &#x27;http://www.web2py.com/book/default/chapter/05&#x27;), (&lt;lazyT &#x27;Database&#x27;&gt;, False, &#x27;http://www.web2py.com/book/default/chapter/06&#x27;), (&lt;lazyT &#x27;Forms and Validators&#x27;&gt;, False, &#x27;http://www.web2py.com/book/default/chapter/07&#x27;), (&lt;lazyT &#x27;Email and SMS&#x27;&gt;, False, &#x27;http://www.web2py.com/book/default/chapter/08&#x27;), (&lt;lazyT &#x27;Access Control&#x27;&gt;, False, &#x27;http://www.web2py.com/book/default/chapter/09&#x27;), (&lt;lazyT &#x27;Services&#x27;&gt;, False, &#x27;http://www.web2py.com/book/default/chapter/10&#x27;), (&lt;lazyT &#x27;Ajax Recipes&#x27;&gt;, False, &#x27;http://www.web2py.com/book/default/chapter/11&#x27;), (&lt;lazyT &#x27;Components and Plugins&#x27;&gt;, False, &#x27;http://www.web2py.com/book/default/chapter/12&#x27;), (&lt;lazyT &#x27;Deployment Recipes&#x27;&gt;, False, &#x27;http://www.web2py.com/book/default/chapter/13&#x27;), (&lt;lazyT &#x27;Other Recipes&#x27;&gt;, False, &#x27;http://www.web2py.com/book/default/chapter/14&#x27;), (&lt;lazyT &#x27;Buy this book&#x27;&gt;, False, &#x27;http://stores.lulu.com/web2py&#x27;)]</div></td></tr></table></div></td></tr><tr><td><div><table><tr><td><div>Community</div></td></tr><tr><td><div>False</div></td></tr><tr><td><div>None</div></td></tr><tr><td><div>[(&lt;lazyT &#x27;Groups&#x27;&gt;, False, &#x27;http://www.web2py.com/examples/default/usergroups&#x27;), (&lt;lazyT &#x27;Twitter&#x27;&gt;, False, &#x27;http://twitter.com/web2py&#x27;), (&lt;lazyT &#x27;Live Chat&#x27;&gt;, False, &#x27;http://webchat.freenode.net/?channels=web2py&#x27;)]</div></td></tr></table></div></td></tr><tr><td><div><table><tr><td><div>Plugins</div></td></tr><tr><td><div>False</div></td></tr><tr><td><div>None</div></td></tr><tr><td><div>[(&#x27;plugin_wiki&#x27;, False, &#x27;http://web2py.com/examples/default/download&#x27;), (&lt;lazyT &#x27;Other Plugins&#x27;&gt;, False, &#x27;http://web2py.com/plugins&#x27;), (&lt;lazyT &#x27;Layout Plugins&#x27;&gt;, False, &#x27;http://web2py.com/layouts&#x27;)]</div></td></tr></table></div></td></tr></table></div></td></tr></table></div></td></tr></table></div></td></tr><tr><td style="font-weight:bold;vertical-align:top">meta</td><td valign="top">:</td><td><div><table><tr><td style="font-weight:bold;vertical-align:top">author</td><td valign="top">:</td><td><div>Your Name &lt;you@example.com&gt;</div></td></tr><tr><td style="font-weight:bold;vertical-align:top">description</td><td valign="top">:</td><td><div>a cool new app</div></td></tr><tr><td style="font-weight:bold;vertical-align:top">generator</td><td valign="top">:</td><td><div>Web2py Web Framework</div></td></tr><tr><td style="font-weight:bold;vertical-align:top">keywords</td><td valign="top">:</td><td><div>web2py, python, framework</div></td></tr></table></div></td></tr><tr><td style="font-weight:bold;vertical-align:top">models_to_run</td><td valign="top">:</td><td><div><table><tr><td><div>^\\w+\\.py$</div></td></tr><tr><td><div>^default/\\w+\\.py$</div></td></tr><tr><td><div>^default/show_paper_topic/\\w+\\.py$</div></td></tr></table></div></td></tr><tr><td style="font-weight:bold;vertical-align:top">postprocessing</td><td valign="top">:</td><td><div><table></table></div></td></tr><tr><td style="font-weight:bold;vertical-align:top">session_cookie_expires</td><td valign="top">:</td><td><div>None</div></td></tr><tr><td style="font-weight:bold;vertical-align:top">session_data_name</td><td valign="top">:</td><td><div>session_data_ittest</div></td></tr><tr><td style="font-weight:bold;vertical-align:top">session_file</td><td valign="top">:</td><td><div>&lt;open file &#x27;/home/abhishek/web2py/applications/ittest/sessions/127.0.0.1-aaa78335-4629-4e30-b6f2-e9cd7dc34730&#x27;, mode &#x27;rb+&#x27; at 0xafcb4ac8&gt;</div></td></tr><tr><td style="font-weight:bold;vertical-align:top">session_filename</td><td valign="top">:</td><td><div>/home/abhishek/web2py/applications/ittest/sessions/127.0.0.1-aaa78335-4629-4e30-b6f2-e9cd7dc34730</div></td></tr><tr><td style="font-weight:bold;vertical-align:top">session_id</td><td valign="top">:</td><td><div>127.0.0.1-aaa78335-4629-4e30-b6f2-e9cd7dc34730</div></td></tr><tr><td style="font-weight:bold;vertical-align:top">session_id_name</td><td valign="top">:</td><td><div>session_id_ittest</div></td></tr><tr><td style="font-weight:bold;vertical-align:top">session_locked</td><td valign="top">:</td><td><div>True</div></td></tr><tr><td style="font-weight:bold;vertical-align:top">session_new</td><td valign="top">:</td><td><div>False</div></td></tr><tr><td style="font-weight:bold;vertical-align:top">session_storage_type</td><td valign="top">:</td><td><div>file</div></td></tr><tr><td style="font-weight:bold;vertical-align:top">status</td><td valign="top">:</td><td><div>200</div></td></tr><tr><td style="font-weight:bold;vertical-align:top">subtitle</td><td valign="top">:</td><td><div>customize me!</div></td></tr><tr><td style="font-weight:bold;vertical-align:top">title</td><td valign="top">:</td><td><div>Ittest</div></td></tr><tr><td style="font-weight:bold;vertical-align:top">view</td><td valign="top">:</td><td><div>default/show_paper_topic.html</div></td></tr></table></div>'
tRp253
sS'locals'
p254
(dp255
S'tables'
p256
S'<bound method SQLiteAdapter.tables of <gluon.dal.SQLiteAdapter object>>'
p257
sS'fields'
p258
S'[]'
p259
sS'self'
p260
S'<gluon.dal.SQLiteAdapter object>'
p261
sS'tablenames'
p262
S'[]'
p263
sS'query'
p264
S'None'
p265
sS'attributes'
p266
g21
sS'args_get'
p267
S'<built-in method get of dict object>'
p268
sssS'traceback'
p269
S'Traceback (most recent call last):\n  File "/home/abhishek/web2py/gluon/restricted.py", line 212, in restricted\n    exec ccode in environment\n  File "/home/abhishek/web2py/applications/ittest/controllers/default.py", line 295, in <module>\n  File "/home/abhishek/web2py/gluon/globals.py", line 194, in <lambda>\n    self._caller = lambda f: f()\n  File "/home/abhishek/web2py/applications/ittest/controllers/default.py", line 251, in show_paper_topic\n    q=db().select()\n  File "/home/abhishek/web2py/gluon/dal.py", line 9810, in select\n    return adapter.select(self.query,fields,attributes)\n  File "/home/abhishek/web2py/gluon/dal.py", line 2218, in select\n    return super(SQLiteAdapter, self).select(query, fields, attributes)\n  File "/home/abhishek/web2py/gluon/dal.py", line 1663, in select\n    sql = self._select(query, fields, attributes)\n  File "/home/abhishek/web2py/gluon/dal.py", line 1512, in _select\n    raise SyntaxError(\'Set: no tables selected\')\nSyntaxError: Set: no tables selected\n'
p270
s.